target datalayout = "e-m:e-p270:32:32-p271:32:32-p272:64:64-i64:64-i128:128-f80:128-n8:16:32:64-S128"
target triple = "x86_64-unknown-linux-gnu"

%"struct.node::AssertionInfo" = type { ptr, ptr, ptr }
%"class.v8::IndirectHandleBase" = type { ptr }
%"class.v8::Local.20" = type { %"class.v8::LocalBase.21" }
%"class.v8::LocalBase.21" = type { %"class.v8::IndirectHandleBase" }
%"class.v8::LocalBase.519" = type { %"class.v8::IndirectHandleBase" }
%"class.v8::Local.518" = type { %"class.v8::LocalBase.519" }
%"class.v8::FunctionCallbackInfo" = type <{ ptr, ptr, i32, [4 x i8] }>
%"class.v8::Local.332" = type { %"class.v8::LocalBase.333" }
%"class.v8::LocalBase.333" = type { %"class.v8::IndirectHandleBase" }
%"class.v8::MaybeLocal.478" = type { %"class.v8::Local.332" }
%"class.v8::ReturnValue" = type { ptr }
%"class.node::Utf8Value" = type { %"class.node::MaybeStackBuffer" }
%"class.node::MaybeStackBuffer" = type { i64, i64, ptr, [1024 x i8] }

@_ZZN4node10cares_wrap12_GLOBAL__N_114CanonicalizeIPERKN2v820FunctionCallbackInfoINS2_5ValueEEEE4args = internal constant %"struct.node::AssertionInfo" { ptr @.str.162, ptr @.str.163, ptr @.str.164 }, align 8

; Function Attrs: mustprogress nounwind uwtable
define linkonce_odr dso_local noundef zeroext i1 @_ZNK4node16MaybeStackBufferIcLm1024EE13IsInvalidatedEv(ptr noundef nonnull align 8 dereferenceable(1048) %this) #4 comdat align 2 {
entry:
  %this.addr = alloca ptr, align 8
  store ptr %this, ptr %this.addr, align 8
  %this1 = load ptr, ptr %this.addr, align 8
  %buf_ = getelementptr inbounds %"class.node::MaybeStackBuffer", ptr %this1, i32 0, i32 2
  %0 = load ptr, ptr %buf_, align 8
  %cmp = icmp eq ptr %0, null
  ret i1 %cmp
}

; Function Attrs: mustprogress nounwind uwtable
define linkonce_odr dso_local noundef zeroext i1 @_ZNK4node16MaybeStackBufferIcLm1024EE11IsAllocatedEv(ptr noundef nonnull align 8 dereferenceable(1048) %this) #4 comdat align 2 {
entry:
  %this.addr = alloca ptr, align 8
  store ptr %this, ptr %this.addr, align 8
  %this1 = load ptr, ptr %this.addr, align 8
  %call = call noundef zeroext i1 @_ZNK4node16MaybeStackBufferIcLm1024EE13IsInvalidatedEv(ptr noundef nonnull align 8 dereferenceable(1048) %this1)
  br i1 %call, label %land.end, label %land.rhs

land.rhs:                                         ; preds = %entry
  %buf_ = getelementptr inbounds %"class.node::MaybeStackBuffer", ptr %this1, i32 0, i32 2
  %0 = load ptr, ptr %buf_, align 8
  %buf_st_ = getelementptr inbounds %"class.node::MaybeStackBuffer", ptr %this1, i32 0, i32 3
  %arraydecay = getelementptr inbounds [1024 x i8], ptr %buf_st_, i64 0, i64 0
  %cmp = icmp ne ptr %0, %arraydecay
  br label %land.end

land.end:                                         ; preds = %land.rhs, %entry
  %1 = phi i1 [ false, %entry ], [ %cmp, %land.rhs ]
  ret i1 %1
}

; Function Attrs: mustprogress nounwind uwtable
define linkonce_odr dso_local void @_ZN4node16MaybeStackBufferIcLm1024EED2Ev(ptr noundef nonnull align 8 dereferenceable(1048) %this) unnamed_addr #4 comdat align 2 {
entry:
  %this.addr = alloca ptr, align 8
  store ptr %this, ptr %this.addr, align 8
  %this1 = load ptr, ptr %this.addr, align 8
  %call = call noundef zeroext i1 @_ZNK4node16MaybeStackBufferIcLm1024EE11IsAllocatedEv(ptr noundef nonnull align 8 dereferenceable(1048) %this1)
  br i1 %call, label %if.then, label %if.end

if.then:                                          ; preds = %entry
  %buf_ = getelementptr inbounds %"class.node::MaybeStackBuffer", ptr %this1, i32 0, i32 2
  %0 = load ptr, ptr %buf_, align 8
  call void @free(ptr noundef %0) #3
  br label %if.end

if.end:                                           ; preds = %if.then, %entry
  ret void
}

; Function Attrs: mustprogress nounwind uwtable
define linkonce_odr dso_local void @_ZN4node9Utf8ValueD2Ev(ptr noundef nonnull align 8 dereferenceable(1048) %this) unnamed_addr #4 comdat align 2 {
entry:
  %this.addr = alloca ptr, align 8
  store ptr %this, ptr %this.addr, align 8
  %this1 = load ptr, ptr %this.addr, align 8
  call void @_ZN4node16MaybeStackBufferIcLm1024EED2Ev(ptr noundef nonnull align 8 dereferenceable(1048) %this1) #3
  ret void
}

; Function Attrs: mustprogress nounwind uwtable
define linkonce_odr dso_local noundef ptr @_ZN4node16MaybeStackBufferIcLm1024EEdeEv(ptr noundef nonnull align 8 dereferenceable(1048) %this) #4 comdat align 2 {
entry:
  %this.addr = alloca ptr, align 8
  store ptr %this, ptr %this.addr, align 8
  %this1 = load ptr, ptr %this.addr, align 8
  %buf_ = getelementptr inbounds %"class.node::MaybeStackBuffer", ptr %this1, i32 0, i32 2
  %0 = load ptr, ptr %buf_, align 8
  ret ptr %0
}

; Function Attrs: mustprogress nounwind uwtable
define internal void @_ZN4node10cares_wrap12_GLOBAL__N_114CanonicalizeIPERKN2v820FunctionCallbackInfoINS2_5ValueEEE(ptr noundef nonnull align 8 dereferenceable(20) %args) #4 {
entry:
  %this.addr.i.i86 = alloca ptr, align 8
  %location.addr.i.i87 = alloca ptr, align 8
  %this.addr.i88 = alloca ptr, align 8
  %location.addr.i = alloca ptr, align 8
  %this.addr.i83 = alloca ptr, align 8
  %other.addr.i84 = alloca ptr, align 8
  %retval.i81 = alloca %"class.v8::LocalBase.21", align 8
  %slot.addr.i82 = alloca ptr, align 8
  %retval.i79 = alloca %"class.v8::Local.20", align 8
  %slot.addr.i80 = alloca ptr, align 8
  %ref.tmp.i = alloca %"class.v8::LocalBase.21", align 8
  %isolate.addr.i.i.i = alloca ptr, align 8
  %index.addr.i.i.i = alloca i32, align 4
  %addr.i.i.i = alloca i64, align 8
  %isolate.addr.i.i65 = alloca ptr, align 8
  %index.addr.i.i66 = alloca i32, align 4
  %this.addr.i10.i67 = alloca ptr, align 8
  %this.addr.i.i.i68 = alloca ptr, align 8
  %this.addr.i8.i = alloca ptr, align 8
  %this.addr.i.i69 = alloca ptr, align 8
  %handle.i = alloca %"class.v8::Local.332", align 8
  %this.addr.i70 = alloca ptr, align 8
  %this.addr.i63 = alloca ptr, align 8
  %slot.addr.i = alloca ptr, align 8
  %this.addr.i.i.i = alloca ptr, align 8
  %location.addr.i.i.i = alloca ptr, align 8
  %this.addr.i10.i = alloca ptr, align 8
  %location.addr.i.i = alloca ptr, align 8
  %this.addr.i.i60 = alloca ptr, align 8
  %other.addr.i.i = alloca ptr, align 8
  %retval.i8.i = alloca %"class.v8::LocalBase.519", align 8
  %slot.addr.i9.i = alloca ptr, align 8
  %retval.i.i = alloca %"class.v8::Local.518", align 8
  %slot.addr.i.i = alloca ptr, align 8
  %ref.tmp.i.i = alloca %"class.v8::LocalBase.519", align 8
  %isolate.addr.i7.i = alloca ptr, align 8
  %index.addr.i.i = alloca i32, align 4
  %addr.i.i = alloca i64, align 8
  %isolate.addr.i.i = alloca ptr, align 8
  %retval.i61 = alloca %"class.v8::Local.518", align 8
  %isolate.addr.i = alloca ptr, align 8
  %slot.i = alloca ptr, align 8
  %this.addr.i58 = alloca ptr, align 8
  %other.addr.i = alloca ptr, align 8
  %that.i = alloca %"class.v8::Local.518", align 8
  %this.addr.i57 = alloca ptr, align 8
  %retval.i53 = alloca %"class.v8::ReturnValue", align 8
  %this.addr.i54 = alloca ptr, align 8
  %this.addr.i.i = alloca ptr, align 8
  %this.addr.i51 = alloca ptr, align 8
  %retval.i46 = alloca %"class.v8::Local.332", align 8
  %this.addr.i47 = alloca ptr, align 8
  %this.addr.i43 = alloca ptr, align 8
  %this.addr.i41 = alloca ptr, align 8
  %retval.i = alloca %"class.v8::Local.20", align 8
  %this.addr.i = alloca ptr, align 8
  %i.addr.i = alloca i32, align 4
  %agg.tmp.i = alloca %"class.v8::Local.518", align 8
  %args.addr = alloca ptr, align 8
  %isolate = alloca ptr, align 8
  %ip = alloca %"class.node::Utf8Value", align 8
  %agg.tmp = alloca %"class.v8::Local.20", align 8
  %af = alloca i32, align 4
  %result = alloca [16 x i8], align 16
  %cleanup.dest.slot = alloca i32, align 4
  %canonical_ip = alloca [46 x i8], align 16
  %val = alloca %"class.v8::Local.332", align 8
  %ref.tmp = alloca %"class.v8::MaybeLocal.478", align 8
  %ref.tmp34 = alloca %"class.v8::ReturnValue", align 8
  %agg.tmp37 = alloca %"class.v8::Local.332", align 8
  store ptr %args, ptr %args.addr, align 8
  %0 = load ptr, ptr %args.addr, align 8
  store ptr %0, ptr %this.addr.i43, align 8
  %this1.i44 = load ptr, ptr %this.addr.i43, align 8
  %1 = load ptr, ptr %this1.i44, align 8
  %arrayidx.i45 = getelementptr inbounds i64, ptr %1, i64 1
  %2 = load ptr, ptr %arrayidx.i45, align 8
  store ptr %2, ptr %isolate, align 8
  %3 = load ptr, ptr %isolate, align 8
  %4 = load ptr, ptr %args.addr, align 8
  store ptr %4, ptr %this.addr.i, align 8
  store i32 0, ptr %i.addr.i, align 4
  %this1.i = load ptr, ptr %this.addr.i, align 8
  %5 = load i32, ptr %i.addr.i, align 4
  %cmp.i = icmp slt i32 %5, 0
  br i1 %cmp.i, label %if.then.i, label %lor.lhs.false.i

lor.lhs.false.i:                                  ; preds = %entry
  %length_.i = getelementptr inbounds %"class.v8::FunctionCallbackInfo", ptr %this1.i, i32 0, i32 2
  %6 = load i32, ptr %length_.i, align 8
  %7 = load i32, ptr %i.addr.i, align 4
  %cmp2.i = icmp sle i32 %6, %7
  br i1 %cmp2.i, label %if.then.i, label %if.end.i

if.then.i:                                        ; preds = %lor.lhs.false.i, %entry
  store ptr %this1.i, ptr %this.addr.i41, align 8
  %this1.i42 = load ptr, ptr %this.addr.i41, align 8
  %8 = load ptr, ptr %this1.i42, align 8
  %arrayidx.i = getelementptr inbounds i64, ptr %8, i64 1
  %9 = load ptr, ptr %arrayidx.i, align 8
  store ptr %9, ptr %isolate.addr.i, align 8
  %10 = load ptr, ptr %isolate.addr.i, align 8
  store ptr %10, ptr %isolate.addr.i.i, align 8
  %11 = load ptr, ptr %isolate.addr.i, align 8
  store ptr %11, ptr %isolate.addr.i7.i, align 8
  store i32 4, ptr %index.addr.i.i, align 4
  %12 = load ptr, ptr %isolate.addr.i7.i, align 8
  %13 = ptrtoint ptr %12 to i64
  %add.i.i = add i64 %13, 576
  %14 = load i32, ptr %index.addr.i.i, align 4
  %mul.i.i = mul nsw i32 %14, 8
  %conv.i.i = sext i32 %mul.i.i to i64
  %add1.i.i = add i64 %add.i.i, %conv.i.i
  store i64 %add1.i.i, ptr %addr.i.i, align 8
  %15 = load i64, ptr %addr.i.i, align 8
  %16 = inttoptr i64 %15 to ptr
  store ptr %16, ptr %slot.i, align 8
  %17 = load ptr, ptr %slot.i, align 8
  store ptr %17, ptr %slot.addr.i.i, align 8
  %18 = load ptr, ptr %slot.addr.i.i, align 8
  store ptr %18, ptr %slot.addr.i9.i, align 8
  %19 = load ptr, ptr %slot.addr.i9.i, align 8
  store ptr %retval.i8.i, ptr %this.addr.i10.i, align 8
  store ptr %19, ptr %location.addr.i.i, align 8
  %this1.i11.i = load ptr, ptr %this.addr.i10.i, align 8
  %20 = load ptr, ptr %location.addr.i.i, align 8
  store ptr %this1.i11.i, ptr %this.addr.i.i.i, align 8
  store ptr %20, ptr %location.addr.i.i.i, align 8
  %this1.i.i.i = load ptr, ptr %this.addr.i.i.i, align 8
  %21 = load ptr, ptr %location.addr.i.i.i, align 8
  store ptr %21, ptr %this1.i.i.i, align 8
  %22 = load ptr, ptr %retval.i8.i, align 8
  store ptr %22, ptr %ref.tmp.i.i, align 8
  store ptr %retval.i.i, ptr %this.addr.i.i60, align 8
  store ptr %ref.tmp.i.i, ptr %other.addr.i.i, align 8
  %this1.i.i62 = load ptr, ptr %this.addr.i.i60, align 8
  %23 = load ptr, ptr %other.addr.i.i, align 8
  call void @llvm.memcpy.p0.p0.i64(ptr align 8 %this1.i.i62, ptr align 8 %23, i64 8, i1 false)
  %24 = load ptr, ptr %retval.i.i, align 8
  store ptr %24, ptr %retval.i61, align 8
  %25 = load ptr, ptr %retval.i61, align 8
  store ptr %25, ptr %agg.tmp.i, align 8
  %26 = load ptr, ptr %agg.tmp.i, align 8
  store ptr %26, ptr %that.i, align 8
  store ptr %retval.i, ptr %this.addr.i57, align 8
  %this3.i = load ptr, ptr %this.addr.i57, align 8
  store ptr %this3.i, ptr %this.addr.i58, align 8
  store ptr %that.i, ptr %other.addr.i, align 8
  %this1.i59 = load ptr, ptr %this.addr.i58, align 8
  %27 = load ptr, ptr %other.addr.i, align 8
  call void @llvm.memcpy.p0.p0.i64(ptr align 8 %this1.i59, ptr align 8 %27, i64 8, i1 false)
  br label %_ZNK2v820FunctionCallbackInfoINS_5ValueEEixEi.exit

if.end.i:                                         ; preds = %lor.lhs.false.i
  %values_.i = getelementptr inbounds %"class.v8::FunctionCallbackInfo", ptr %this1.i, i32 0, i32 1
  %28 = load ptr, ptr %values_.i, align 8
  %29 = load i32, ptr %i.addr.i, align 4
  %idx.ext.i = sext i32 %29 to i64
  %add.ptr.i = getelementptr inbounds i64, ptr %28, i64 %idx.ext.i
  store ptr %add.ptr.i, ptr %slot.addr.i80, align 8
  %30 = load ptr, ptr %slot.addr.i80, align 8
  store ptr %30, ptr %slot.addr.i82, align 8
  %31 = load ptr, ptr %slot.addr.i82, align 8
  store ptr %retval.i81, ptr %this.addr.i88, align 8
  store ptr %31, ptr %location.addr.i, align 8
  %this1.i89 = load ptr, ptr %this.addr.i88, align 8
  %32 = load ptr, ptr %location.addr.i, align 8
  store ptr %this1.i89, ptr %this.addr.i.i86, align 8
  store ptr %32, ptr %location.addr.i.i87, align 8
  %this1.i.i90 = load ptr, ptr %this.addr.i.i86, align 8
  %33 = load ptr, ptr %location.addr.i.i87, align 8
  store ptr %33, ptr %this1.i.i90, align 8
  %34 = load ptr, ptr %retval.i81, align 8
  store ptr %34, ptr %ref.tmp.i, align 8
  store ptr %retval.i79, ptr %this.addr.i83, align 8
  store ptr %ref.tmp.i, ptr %other.addr.i84, align 8
  %this1.i85 = load ptr, ptr %this.addr.i83, align 8
  %35 = load ptr, ptr %other.addr.i84, align 8
  call void @llvm.memcpy.p0.p0.i64(ptr align 8 %this1.i85, ptr align 8 %35, i64 8, i1 false)
  %36 = load ptr, ptr %retval.i79, align 8
  store ptr %36, ptr %retval.i, align 8
  br label %_ZNK2v820FunctionCallbackInfoINS_5ValueEEixEi.exit

_ZNK2v820FunctionCallbackInfoINS_5ValueEEixEi.exit: ; preds = %if.end.i, %if.then.i
  %37 = load ptr, ptr %retval.i, align 8
  %coerce.dive = getelementptr inbounds %"class.v8::Local.20", ptr %agg.tmp, i32 0, i32 0
  %coerce.dive2 = getelementptr inbounds %"class.v8::LocalBase.21", ptr %coerce.dive, i32 0, i32 0
  %coerce.dive3 = getelementptr inbounds %"class.v8::IndirectHandleBase", ptr %coerce.dive2, i32 0, i32 0
  store ptr %37, ptr %coerce.dive3, align 8
  %coerce.dive4 = getelementptr inbounds %"class.v8::Local.20", ptr %agg.tmp, i32 0, i32 0
  %coerce.dive5 = getelementptr inbounds %"class.v8::LocalBase.21", ptr %coerce.dive4, i32 0, i32 0
  %coerce.dive6 = getelementptr inbounds %"class.v8::IndirectHandleBase", ptr %coerce.dive5, i32 0, i32 0
  %38 = load ptr, ptr %coerce.dive6, align 8
  call void @_ZN4node9Utf8ValueC1EPN2v87IsolateENS1_5LocalINS1_5ValueEEE(ptr noundef nonnull align 8 dereferenceable(1048) %ip, ptr noundef %3, ptr %38)
  store i32 2, ptr %af, align 4
  %call7 = call noundef ptr @_ZN4node16MaybeStackBufferIcLm1024EEdeEv(ptr noundef nonnull align 8 dereferenceable(1048) %ip)
  %arraydecay = getelementptr inbounds [16 x i8], ptr %result, i64 0, i64 0
  %call8 = call i32 @uv_inet_pton(i32 noundef 2, ptr noundef %call7, ptr noundef %arraydecay)
  %cmp = icmp ne i32 %call8, 0
  br i1 %cmp, label %land.lhs.true, label %if.end

land.lhs.true:                                    ; preds = %_ZNK2v820FunctionCallbackInfoINS_5ValueEEixEi.exit
  store i32 10, ptr %af, align 4
  %call9 = call noundef ptr @_ZN4node16MaybeStackBufferIcLm1024EEdeEv(ptr noundef nonnull align 8 dereferenceable(1048) %ip)
  %arraydecay10 = getelementptr inbounds [16 x i8], ptr %result, i64 0, i64 0
  %call11 = call i32 @uv_inet_pton(i32 noundef 10, ptr noundef %call9, ptr noundef %arraydecay10)
  %cmp12 = icmp ne i32 %call11, 0
  br i1 %cmp12, label %if.then, label %if.end

if.then:                                          ; preds = %land.lhs.true
  store i32 1, ptr %cleanup.dest.slot, align 4
  br label %cleanup

if.end:                                           ; preds = %land.lhs.true, %_ZNK2v820FunctionCallbackInfoINS_5ValueEEixEi.exit
  br label %do.body

do.body:                                          ; preds = %if.end
  %39 = load i32, ptr %af, align 4
  %arraydecay13 = getelementptr inbounds [16 x i8], ptr %result, i64 0, i64 0
  %arraydecay14 = getelementptr inbounds [46 x i8], ptr %canonical_ip, i64 0, i64 0
  %call15 = call i32 @uv_inet_ntop(i32 noundef %39, ptr noundef %arraydecay13, ptr noundef %arraydecay14, i64 noundef 46)
  %cmp16 = icmp eq i32 0, %call15
  %lnot = xor i1 %cmp16, true
  %lnot17 = xor i1 %lnot, true
  %lnot18 = xor i1 %lnot17, true
  br i1 %lnot18, label %if.then19, label %if.end21

if.then19:                                        ; preds = %do.body
  br label %do.body20

do.body20:                                        ; preds = %if.then19
  call void @_ZN4node6AssertERKNS_13AssertionInfoE(ptr noundef nonnull align 8 dereferenceable(24) @_ZZN4node10cares_wrap12_GLOBAL__N_114CanonicalizeIPERKN2v820FunctionCallbackInfoINS2_5ValueEEEE4args)
  call void @abort() #16
  unreachable

do.cond:                                          ; No predecessors!
  br label %do.end

do.end:                                           ; preds = %do.cond
  br label %if.end21

if.end21:                                         ; preds = %do.end, %do.body
  br label %do.cond22

do.cond22:                                        ; preds = %if.end21
  br label %do.end23

do.end23:                                         ; preds = %do.cond22
  %40 = load ptr, ptr %isolate, align 8
  %arraydecay24 = getelementptr inbounds [46 x i8], ptr %canonical_ip, i64 0, i64 0
  %call25 = call ptr @_ZN2v86String11NewFromUtf8EPNS_7IsolateEPKcNS_13NewStringTypeEi(ptr noundef %40, ptr noundef %arraydecay24, i32 noundef 0, i32 noundef -1)
  %coerce.dive26 = getelementptr inbounds %"class.v8::MaybeLocal.478", ptr %ref.tmp, i32 0, i32 0
  %coerce.dive27 = getelementptr inbounds %"class.v8::Local.332", ptr %coerce.dive26, i32 0, i32 0
  %coerce.dive28 = getelementptr inbounds %"class.v8::LocalBase.333", ptr %coerce.dive27, i32 0, i32 0
  %coerce.dive29 = getelementptr inbounds %"class.v8::IndirectHandleBase", ptr %coerce.dive28, i32 0, i32 0
  store ptr %call25, ptr %coerce.dive29, align 8
  store ptr %ref.tmp, ptr %this.addr.i47, align 8
  %this1.i48 = load ptr, ptr %this.addr.i47, align 8
  store ptr %this1.i48, ptr %this.addr.i51, align 8
  %this1.i52 = load ptr, ptr %this.addr.i51, align 8
  store ptr %this1.i52, ptr %this.addr.i.i, align 8
  %this1.i.i = load ptr, ptr %this.addr.i.i, align 8
  %41 = load ptr, ptr %this1.i.i, align 8
  %cmp.i.i = icmp eq ptr %41, null
  br i1 %cmp.i.i, label %if.then.i50, label %_ZN2v810MaybeLocalINS_6StringEE14ToLocalCheckedEv.exit

if.then.i50:                                      ; preds = %do.end23
  call void @_ZN2v812api_internal12ToLocalEmptyEv() #3
  br label %_ZN2v810MaybeLocalINS_6StringEE14ToLocalCheckedEv.exit

_ZN2v810MaybeLocalINS_6StringEE14ToLocalCheckedEv.exit: ; preds = %if.then.i50, %do.end23
  call void @llvm.memcpy.p0.p0.i64(ptr align 8 %retval.i46, ptr align 8 %this1.i48, i64 8, i1 false)
  %42 = load ptr, ptr %retval.i46, align 8
  %coerce.dive31 = getelementptr inbounds %"class.v8::Local.332", ptr %val, i32 0, i32 0
  %coerce.dive32 = getelementptr inbounds %"class.v8::LocalBase.333", ptr %coerce.dive31, i32 0, i32 0
  %coerce.dive33 = getelementptr inbounds %"class.v8::IndirectHandleBase", ptr %coerce.dive32, i32 0, i32 0
  store ptr %42, ptr %coerce.dive33, align 8
  %43 = load ptr, ptr %args.addr, align 8
  store ptr %43, ptr %this.addr.i54, align 8
  %this1.i55 = load ptr, ptr %this.addr.i54, align 8
  %44 = load ptr, ptr %this1.i55, align 8
  %arrayidx.i56 = getelementptr inbounds i64, ptr %44, i64 3
  store ptr %retval.i53, ptr %this.addr.i63, align 8
  store ptr %arrayidx.i56, ptr %slot.addr.i, align 8
  %this1.i64 = load ptr, ptr %this.addr.i63, align 8
  %45 = load ptr, ptr %slot.addr.i, align 8
  store ptr %45, ptr %this1.i64, align 8
  %46 = load ptr, ptr %retval.i53, align 8
  %coerce.dive36 = getelementptr inbounds %"class.v8::ReturnValue", ptr %ref.tmp34, i32 0, i32 0
  store ptr %46, ptr %coerce.dive36, align 8
  call void @llvm.memcpy.p0.p0.i64(ptr align 8 %agg.tmp37, ptr align 8 %val, i64 8, i1 false)
  %coerce.dive38 = getelementptr inbounds %"class.v8::Local.332", ptr %agg.tmp37, i32 0, i32 0
  %coerce.dive39 = getelementptr inbounds %"class.v8::LocalBase.333", ptr %coerce.dive38, i32 0, i32 0
  %coerce.dive40 = getelementptr inbounds %"class.v8::IndirectHandleBase", ptr %coerce.dive39, i32 0, i32 0
  %47 = load ptr, ptr %coerce.dive40, align 8
  store ptr %47, ptr %handle.i, align 8
  store ptr %ref.tmp34, ptr %this.addr.i70, align 8
  %this3.i71 = load ptr, ptr %this.addr.i70, align 8
  store ptr %handle.i, ptr %this.addr.i.i69, align 8
  %this1.i.i72 = load ptr, ptr %this.addr.i.i69, align 8
  %48 = load ptr, ptr %this1.i.i72, align 8
  %cmp.i.i73 = icmp eq ptr %48, null
  br i1 %cmp.i.i73, label %if.then.i77, label %if.else.i

if.then.i77:                                      ; preds = %_ZN2v810MaybeLocalINS_6StringEE14ToLocalCheckedEv.exit
  store ptr %this3.i71, ptr %this.addr.i8.i, align 8
  %this1.i9.i = load ptr, ptr %this.addr.i8.i, align 8
  store ptr %this1.i9.i, ptr %this.addr.i.i.i68, align 8
  %this1.i.i.i78 = load ptr, ptr %this.addr.i.i.i68, align 8
  %49 = load ptr, ptr %this1.i.i.i78, align 8
  %arrayidx.i.i.i = getelementptr inbounds i64, ptr %49, i64 -2
  %50 = load ptr, ptr %arrayidx.i.i.i, align 8
  store ptr %50, ptr %isolate.addr.i.i65, align 8
  store i32 5, ptr %index.addr.i.i66, align 4
  %51 = load ptr, ptr %isolate.addr.i.i65, align 8
  %52 = load i32, ptr %index.addr.i.i66, align 4
  store ptr %51, ptr %isolate.addr.i.i.i, align 8
  store i32 %52, ptr %index.addr.i.i.i, align 4
  %53 = load ptr, ptr %isolate.addr.i.i.i, align 8
  %54 = ptrtoint ptr %53 to i64
  %add.i.i.i = add i64 %54, 576
  %55 = load i32, ptr %index.addr.i.i.i, align 4
  %mul.i.i.i = mul nsw i32 %55, 8
  %conv.i.i.i = sext i32 %mul.i.i.i to i64
  %add1.i.i.i = add i64 %add.i.i.i, %conv.i.i.i
  store i64 %add1.i.i.i, ptr %addr.i.i.i, align 8
  %56 = load i64, ptr %addr.i.i.i, align 8
  %57 = inttoptr i64 %56 to ptr
  %58 = load i64, ptr %57, align 8
  %59 = load ptr, ptr %this3.i71, align 8
  store i64 %58, ptr %59, align 8
  br label %_ZN2v811ReturnValueINS_5ValueEE3SetINS_6StringEEEvNS_5LocalIT_EE.exit

if.else.i:                                        ; preds = %_ZN2v810MaybeLocalINS_6StringEE14ToLocalCheckedEv.exit
  store ptr %handle.i, ptr %this.addr.i10.i67, align 8
  %this1.i11.i75 = load ptr, ptr %this.addr.i10.i67, align 8
  %60 = load ptr, ptr %this1.i11.i75, align 8
  %61 = load i64, ptr %60, align 8
  %62 = load ptr, ptr %this3.i71, align 8
  store i64 %61, ptr %62, align 8
  br label %_ZN2v811ReturnValueINS_5ValueEE3SetINS_6StringEEEvNS_5LocalIT_EE.exit

_ZN2v811ReturnValueINS_5ValueEE3SetINS_6StringEEEvNS_5LocalIT_EE.exit: ; preds = %if.else.i, %if.then.i77
  store i32 0, ptr %cleanup.dest.slot, align 4
  br label %cleanup

cleanup:                                          ; preds = %_ZN2v811ReturnValueINS_5ValueEE3SetINS_6StringEEEvNS_5LocalIT_EE.exit, %if.then
  call void @_ZN4node9Utf8ValueD2Ev(ptr noundef nonnull align 8 dereferenceable(1048) %ip) #3
  %cleanup.dest = load i32, ptr %cleanup.dest.slot, align 4
  switch i32 %cleanup.dest, label %unreachable [
    i32 0, label %cleanup.cont
    i32 1, label %cleanup.cont
  ]

cleanup.cont:                                     ; preds = %cleanup, %cleanup
  ret void

unreachable:                                      ; preds = %cleanup
  unreachable
}