; Function Attrs: mustprogress nounwind uwtable
define internal void @_ZN4node10cares_wrap12_GLOBAL__N_114CanonicalizeIPERKN2v820FunctionCallbackInfoINS2_5ValueEEE(ptr nocapture noundef nonnull readonly align 8 dereferenceable(20) %args) #3 {
entry:
  %ip = alloca %"class.node::Utf8Value", align 8
  %result = alloca [16 x i8], align 16
  %canonical_ip = alloca [46 x i8], align 16
  %0 = load ptr, ptr %args, align 8
  %arrayidx.i45 = getelementptr inbounds i8, ptr %0, i64 8
  %1 = load ptr, ptr %arrayidx.i45, align 8
  %length_.i = getelementptr inbounds i8, ptr %args, i64 16
  %2 = load i32, ptr %length_.i, align 8
  %cmp2.i = icmp slt i32 %2, 1
  %3 = ptrtoint ptr %1 to i64
  %add1.i.i = add i64 %3, 608
  %4 = inttoptr i64 %add1.i.i to ptr
  %values_.i = getelementptr inbounds i8, ptr %args, i64 8
  %5 = load ptr, ptr %values_.i, align 8
  %retval.i.sroa.0.0 = select i1 %cmp2.i, ptr %4, ptr %5
  call void @_ZN4node9Utf8ValueC1EPN2v87IsolateENS1_5LocalINS1_5ValueEEE(ptr noundef nonnull align 8 dereferenceable(1048) %ip, ptr noundef %1, ptr %retval.i.sroa.0.0) #20
  %buf_.i = getelementptr inbounds i8, ptr %ip, i64 16
  %6 = load ptr, ptr %buf_.i, align 8
  %call8 = call i32 @uv_inet_pton(i32 noundef 2, ptr noundef %6, ptr noundef nonnull %result) #20
  %cmp.not = icmp eq i32 %call8, 0
  br i1 %cmp.not, label %do.body, label %land.lhs.true

land.lhs.true:                                    ; preds = %entry
  %7 = load ptr, ptr %buf_.i, align 8
  %call11 = call i32 @uv_inet_pton(i32 noundef 10, ptr noundef %7, ptr noundef nonnull %result) #20
  %cmp12.not = icmp eq i32 %call11, 0
  br i1 %cmp12.not, label %do.body, label %cleanup

do.body:                                          ; preds = %entry, %land.lhs.true
  %af.0 = phi i32 [ 10, %land.lhs.true ], [ 2, %entry ]
  %call15 = call i32 @uv_inet_ntop(i32 noundef %af.0, ptr noundef nonnull %result, ptr noundef nonnull %canonical_ip, i64 noundef 46) #20
  %cmp16.not = icmp eq i32 %call15, 0
  br i1 %cmp16.not, label %do.end23, label %do.body20

do.body20:                                        ; preds = %do.body
  call void @_ZN4node6AssertERKNS_13AssertionInfoE(ptr noundef nonnull align 8 dereferenceable(24) @_ZZN4node10cares_wrap12_GLOBAL__N_114CanonicalizeIPERKN2v820FunctionCallbackInfoINS2_5ValueEEEE4args) #20
  call void @abort() #23
  unreachable

do.end23:                                         ; preds = %do.body
  %call25 = call ptr @_ZN2v86String11NewFromUtf8EPNS_7IsolateEPKcNS_13NewStringTypeEi(ptr noundef %1, ptr noundef nonnull %canonical_ip, i32 noundef 0, i32 noundef -1) #20
  %cmp.i.i = icmp eq ptr %call25, null
  br i1 %cmp.i.i, label %if.then.i77, label %_ZN2v810MaybeLocalINS_6StringEE14ToLocalCheckedEv.exit

_ZN2v810MaybeLocalINS_6StringEE14ToLocalCheckedEv.exit: ; preds = %do.end23
  %8 = load ptr, ptr %args, align 8
  br label %_ZN2v811ReturnValueINS_5ValueEE3SetINS_6StringEEEvNS_5LocalIT_EE.exit

if.then.i77:                                      ; preds = %do.end23
  call void @_ZN2v812api_internal12ToLocalEmptyEv() #20
  %9 = load ptr, ptr %args, align 8
  %arrayidx.i.i.i = getelementptr inbounds i8, ptr %9, i64 8
  %10 = load ptr, ptr %arrayidx.i.i.i, align 8
  %11 = ptrtoint ptr %10 to i64
  %add1.i.i.i = add i64 %11, 616
  %12 = inttoptr i64 %add1.i.i.i to ptr
  br label %_ZN2v811ReturnValueINS_5ValueEE3SetINS_6StringEEEvNS_5LocalIT_EE.exit

_ZN2v811ReturnValueINS_5ValueEE3SetINS_6StringEEEvNS_5LocalIT_EE.exit: ; preds = %_ZN2v810MaybeLocalINS_6StringEE14ToLocalCheckedEv.exit, %if.then.i77
  %.pn = phi ptr [ %9, %if.then.i77 ], [ %8, %_ZN2v810MaybeLocalINS_6StringEE14ToLocalCheckedEv.exit ]
  %storemerge.in = phi ptr [ %12, %if.then.i77 ], [ %call25, %_ZN2v810MaybeLocalINS_6StringEE14ToLocalCheckedEv.exit ]
  %arrayidx.i5612 = getelementptr inbounds i8, ptr %.pn, i64 24
  %storemerge = load i64, ptr %storemerge.in, align 8
  store i64 %storemerge, ptr %arrayidx.i5612, align 8
  br label %cleanup

cleanup:                                          ; preds = %land.lhs.true, %_ZN2v811ReturnValueINS_5ValueEE3SetINS_6StringEEEvNS_5LocalIT_EE.exit
  %13 = load ptr, ptr %buf_.i, align 8
  %cmp.i.i.i.i = icmp ne ptr %13, null
  %buf_st_.i.i.i = getelementptr inbounds i8, ptr %ip, i64 24
  %cmp.i.i.i = icmp ne ptr %13, %buf_st_.i.i.i
  %14 = select i1 %cmp.i.i.i.i, i1 %cmp.i.i.i, i1 false
  br i1 %14, label %if.then.i.i, label %_ZN4node9Utf8ValueD2Ev.exit

if.then.i.i:                                      ; preds = %cleanup
  call void @free(ptr noundef nonnull %13) #20
  br label %_ZN4node9Utf8ValueD2Ev.exit

_ZN4node9Utf8ValueD2Ev.exit:                      ; preds = %cleanup, %if.then.i.i
  ret void
}